Certificate:
    Data:
        Version: 3 (0x2)
        Serial Number: 1 (0x1)
        Signature Algorithm: sha1WithRSAEncryption
        Issuer: C=SC, ST=SC, L=Victoria, O=SmartVPN Ltd., OU=OpenVPN Server, CN=SmartVPN Ltd. CA/emailAddress=admin@smartvpn.biz
        Validity
            Not Before: Aug  2 14:12:39 2013 GMT
            Not After : Jul 31 14:12:39 2023 GMT
        Subject: C=SC, ST=SC, L=Victoria, O=SmartVPN Ltd., OU=OpenVPN Server, CN=server/emailAddress=admin@smartvpn.biz
        Subject Public Key Info:
            Public Key Algorithm: rsaEncryption
            RSA Public Key: (1024 bit)
                Modulus (1024 bit):
                    00:b8:04:02:1d:62:aa:7d:15:5e:a0:a8:1c:f0:c7:
                    18:a7:77:af:e2:14:29:ab:c1:08:36:4c:12:4c:41:
                    61:e3:8d:86:a4:b0:96:85:09:df:a0:64:d8:3a:0c:
                    3b:a9:ea:6f:af:5d:63:9b:39:a7:09:bb:93:b7:d7:
                    29:43:52:c3:fa:dd:c2:1b:8e:e3:7e:5a:e9:e1:3a:
                    11:13:d8:bd:93:98:2c:16:62:4e:ca:d3:34:61:5b:
                    14:53:85:67:4a:1c:36:fe:23:53:21:aa:60:a4:4b:
                    15:69:32:41:69:17:bb:9d:d7:f1:74:98:e1:44:0e:
                    82:21:e3:fe:0d:dc:17:65:47
                Exponent: 65537 (0x10001)
        X509v3 extensions:
            X509v3 Basic Constraints: 
                CA:FALSE
            Netscape Cert Type: 
                SSL Server
            Netscape Comment: 
                OpenVPN Generated Server Certificate
            X509v3 Subject Key Identifier: 
                A5:E4:10:62:31:C3:2E:EE:F9:FE:09:4E:64:6C:23:CB:5E:98:63:F3
            X509v3 Authority Key Identifier: 
                keyid:E1:50:74:7D:70:9C:41:64:73:4B:66:84:D9:C4:CD:A8:DF:4C:ED:39
                DirName:/C=SC/ST=SC/L=Victoria/O=SmartVPN Ltd./OU=OpenVPN Server/CN=SmartVPN Ltd. CA/emailAddress=admin@smartvpn.biz
                serial:E2:EA:F3:05:1E:42:11:D3

            X509v3 Extended Key Usage: 
                TLS Web Server Authentication
            X509v3 Key Usage: 
                Digital Signature, Key Encipherment
    Signature Algorithm: sha1WithRSAEncryption
        97:0a:c9:3d:e7:08:40:ac:a5:30:44:65:b9:b7:1e:57:0d:61:
        71:13:c0:69:dc:a6:e0:ae:e4:03:d8:13:42:64:c5:07:05:a0:
        0c:cd:86:40:2e:88:28:40:a8:5c:ec:2b:b1:ce:84:88:d2:24:
        e8:42:fd:50:cb:1e:6b:3a:e3:6b:c4:a2:df:2f:03:4c:41:3c:
        8a:78:e1:e6:a7:16:a0:59:61:e3:5c:26:01:5e:22:4c:ad:48:
        d8:3e:57:72:79:f8:03:a3:31:f2:46:eb:15:f9:ea:18:2a:09:
        46:60:f0:99:df:41:29:f2:ef:30:90:02:77:90:28:ae:80:3d:
        60:86
-----BEGIN CERTIFICATE-----
MIIEFDCCA32gAwIBAgIBATANBgkqhkiG9w0BAQUFADCBnDELMAkGA1UEBhMCU0Mx
CzAJBgNVBAgTAlNDMREwDwYDVQQHEwhWaWN0b3JpYTEWMBQGA1UEChMNU21hcnRW
UE4gTHRkLjEXMBUGA1UECxMOT3BlblZQTiBTZXJ2ZXIxGTAXBgNVBAMTEFNtYXJ0
VlBOIEx0ZC4gQ0ExITAfBgkqhkiG9w0BCQEWEmFkbWluQHNtYXJ0dnBuLmJpejAe
Fw0xMzA4MDIxNDEyMzlaFw0yMzA3MzExNDEyMzlaMIGSMQswCQYDVQQGEwJTQzEL
MAkGA1UECBMCU0MxETAPBgNVBAcTCFZpY3RvcmlhMRYwFAYDVQQKEw1TbWFydFZQ
TiBMdGQuMRcwFQYDVQQLEw5PcGVuVlBOIFNlcnZlcjEPMA0GA1UEAxMGc2VydmVy
MSEwHwYJKoZIhvcNAQkBFhJhZG1pbkBzbWFydHZwbi5iaXowgZ8wDQYJKoZIhvcN
AQEBBQADgY0AMIGJAoGBALgEAh1iqn0VXqCoHPDHGKd3r+IUKavBCDZMEkxBYeON
hqSwloUJ36Bk2DoMO6nqb69dY5s5pwm7k7fXKUNSw/rdwhuO435a6eE6ERPYvZOY
LBZiTsrTNGFbFFOFZ0ocNv4jUyGqYKRLFWkyQWkXu53X8XSY4UQOgiHj/g3cF2VH
AgMBAAGjggFsMIIBaDAJBgNVHRMEAjAAMBEGCWCGSAGG+EIBAQQEAwIGQDAzBglg
hkgBhvhCAQ0EJhYkT3BlblZQTiBHZW5lcmF0ZWQgU2VydmVyIENlcnRpZmljYXRl
MB0GA1UdDgQWBBSl5BBiMcMu7vn+CU5kbCPLXphj8zCB0QYDVR0jBIHJMIHGgBTh
UHR9cJxBZHNLZoTZxM2o30ztOaGBoqSBnzCBnDELMAkGA1UEBhMCU0MxCzAJBgNV
BAgTAlNDMREwDwYDVQQHEwhWaWN0b3JpYTEWMBQGA1UEChMNU21hcnRWUE4gTHRk
LjEXMBUGA1UECxMOT3BlblZQTiBTZXJ2ZXIxGTAXBgNVBAMTEFNtYXJ0VlBOIEx0
ZC4gQ0ExITAfBgkqhkiG9w0BCQEWEmFkbWluQHNtYXJ0dnBuLmJpeoIJAOLq8wUe
QhHTMBMGA1UdJQQMMAoGCCsGAQUFBwMBMAsGA1UdDwQEAwIFoDANBgkqhkiG9w0B
AQUFAAOBgQCXCsk95whArKUwRGW5tx5XDWFxE8Bp3KbgruQD2BNCZMUHBaAMzYZA
LogoQKhc7CuxzoSI0iToQv1Qyx5rOuNrxKLfLwNMQTyKeOHmpxagWWHjXCYBXiJM
rUjYPldyefgDozHyRusV+eoYKglGYPCZ30Ep8u8wkAJ3kCiugD1ghg==
-----END CERTIFICATE-----
